; Function Attrs: mustprogress uwtable
define noundef ptr @_ZN3zmq5msg_t4dataEv(ptr noundef nonnull readonly align 8 dereferenceable(64) %0) local_unnamed_addr #1 align 2 {
  %2 = getelementptr inbounds nuw i8, ptr %0, i64 42
  %3 = load i8, ptr %2, align 2, !tbaa !3
  %4 = add i8 %3, -101
  %spec.select.i = icmp ult i8 %4, 7
  br i1 %spec.select.i, label %10, label %5, !prof !23

5:                                                ; preds = %1
  %6 = load ptr, ptr @stderr, align 8, !tbaa !7
  %7 = tail call i32 (ptr, ptr, ...) @fprintf(ptr noundef %6, ptr noundef nonnull @.str, ptr noundef nonnull @.str.6, ptr noundef nonnull @.str.2, i32 noundef 367) #20
  %8 = load ptr, ptr @stderr, align 8, !tbaa !7
  %9 = tail call i32 @fflush(ptr noundef %8)
  tail call void @_ZN3zmq9zmq_abortEPKc(ptr noundef nonnull @.str.6)
  %.pr = load i8, ptr %2, align 2, !tbaa !3
  br label %10

10:                                               ; preds = %1, %5
  %11 = phi i8 [ %3, %1 ], [ %.pr, %5 ]
  switch i8 %11, label %25 [
    i8 101, label %12
    i8 102, label %14
    i8 104, label %18
    i8 105, label %21
  ]

12:                                               ; preds = %10
  %13 = getelementptr inbounds nuw i8, ptr %0, i64 8
  br label %30

14:                                               ; preds = %10
  %15 = getelementptr inbounds nuw i8, ptr %0, i64 8
  %16 = load ptr, ptr %15, align 8, !tbaa !3
  %17 = load ptr, ptr %16, align 8, !tbaa !10
  br label %30

18:                                               ; preds = %10
  %19 = getelementptr inbounds nuw i8, ptr %0, i64 8
  %20 = load ptr, ptr %19, align 8, !tbaa !3
  br label %30

21:                                               ; preds = %10
  %22 = getelementptr inbounds nuw i8, ptr %0, i64 8
  %23 = load ptr, ptr %22, align 8, !tbaa !3
  %24 = load ptr, ptr %23, align 8, !tbaa !10
  br label %30

25:                                               ; preds = %10
  %26 = load ptr, ptr @stderr, align 8, !tbaa !7
  %27 = tail call i32 (ptr, ptr, ...) @fprintf(ptr noundef %26, ptr noundef nonnull @.str, ptr noundef nonnull @.str.7, ptr noundef nonnull @.str.2, i32 noundef 379) #20
  %28 = load ptr, ptr @stderr, align 8, !tbaa !7
  %29 = tail call i32 @fflush(ptr noundef %28)
  tail call void @_ZN3zmq9zmq_abortEPKc(ptr noundef nonnull @.str.7)
  br label %30

30:                                               ; preds = %25, %21, %18, %14, %12
  %.0 = phi ptr [ null, %25 ], [ %24, %21 ], [ %20, %18 ], [ %17, %14 ], [ %13, %12 ]
  ret ptr %.0
}